EXPORTS 
	??_R0?AV<lambda_1>@?BB@???$ws@$$T@?$TemplatedApp@$0A@@uWS@@QEAA$$QEAU12@V?$basic_string@DU?$char_traits@D@std@@V?$allocator@D@2@@std@@$$QEAU?$WebSocketBehavior@$$T@12@@Z@@8 	 DATA
	??_R0?AV?$_Func_base@_NPEAUSubscriber@uWS@@AEAUTopicTreeMessage@2@W4IteratorFlags@?$TopicTree@UTopicTreeMessage@uWS@@UTopicTreeBigMessage@2@@2@@std@@@8 	 DATA
	??_R0?AV?$_Func_impl_no_alloc@V<lambda_1>@?BB@???$ws@$$T@?$TemplatedApp@$0A@@uWS@@QEAA$$QEAU23@V?$basic_string@DU?$char_traits@D@std@@V?$allocator@D@2@@std@@$$QEAU?$WebSocketBehavior@$$T@23@@Z@_NPEAUSubscriber@3@AEAUTopicTreeMessage@3@W4IteratorFlags@?$TopicTree@UTopicTreeMessage@uWS@@UTopicTreeBigMessage@2@@3@@std@@@8 	 DATA
	??_R0?AVbad_alloc@std@@@8 	 DATA
	??_R0?AVbad_array_new_length@std@@@8 	 DATA
	??_R0?AVbad_optional_access@std@@@8 	 DATA
	??_R0?AVexception@std@@@8 	 DATA
	??__J?1??getLazyLoop@Loop@uWS@@CAAEAULoopCleaner@12@XZ@51 	 DATA
	?_OptionsStorage@?1??__local_stdio_printf_options@@9@4_KA 	 DATA
	?connectionMutex@@3Vmutex@std@@A 	 DATA
	?isConnected@@3_NA 	 DATA
	?lazyLoop@?1??getLazyLoop@Loop@uWS@@CAAEAULoopCleaner@23@XZ@4U423@A 	 DATA
	?loop@@3PEAULoop@uWS@@EA 	 DATA
	?ws@@3PEAU?$WebSocket@$0A@$00$$T@uWS@@EA 	 DATA
	?wsThread@@3Vthread@std@@A 	 DATA
	unityCallback 	 DATA
	?<lambda_invoker_cdecl>@<lambda_1>@?1??create@Loop@uWS@@CAPEAU34@PEAX@Z@SA@PEAUus_timer_t@@@Z
	?<lambda_invoker_cdecl>@<lambda_1>@?1??init@?$HttpContext@$0A@@uWS@@AEAAPEAU34@XZ@SA@PEAUus_socket_t@@HPEADH@Z
	?<lambda_invoker_cdecl>@<lambda_2>@?1??init@?$HttpContext@$0A@@uWS@@AEAAPEAU34@XZ@SA@PEAUus_socket_t@@HPEAX@Z
	?<lambda_invoker_cdecl>@<lambda_3>@?1??init@?$HttpContext@$0A@@uWS@@AEAAPEAU34@XZ@SA@PEAUus_socket_t@@PEADH@Z
	?<lambda_invoker_cdecl>@<lambda_4>@?1??init@?$HttpContext@$0A@@uWS@@AEAAPEAU34@XZ@SA@PEAUus_socket_t@@@Z
	?<lambda_invoker_cdecl>@<lambda_5>@?1??init@?$HttpContext@$0A@@uWS@@AEAAPEAU34@XZ@SA@PEAUus_socket_t@@@Z
	?<lambda_invoker_cdecl>@<lambda_6>@?1??init@?$HttpContext@$0A@@uWS@@AEAAPEAU34@XZ@SA@PEAUus_socket_t@@@Z
	??$<lambda_invoker_cdecl>@Uus_socket_t@@@<lambda_1>@?1??init@?$WebSocketContext@$0A@$00$$T@uWS@@AEAAPEAU23@XZ@SA?A_PPEAUus_socket_t@@HPEAX@Z
	??$<lambda_invoker_cdecl>@Uus_socket_t@@@<lambda_2>@?1??init@?$WebSocketContext@$0A@$00$$T@uWS@@AEAAPEAU23@XZ@SA?A_PPEAUus_socket_t@@PEADH@Z
	??$<lambda_invoker_cdecl>@Uus_socket_t@@@<lambda_3>@?1??init@?$WebSocketContext@$0A@$00$$T@uWS@@AEAAPEAU23@XZ@SA?A_PPEAUus_socket_t@@@Z
	??$<lambda_invoker_cdecl>@Uus_socket_t@@@<lambda_4>@?1??init@?$WebSocketContext@$0A@$00$$T@uWS@@AEAAPEAU23@XZ@SA?A_PPEAUus_socket_t@@@Z
	??$<lambda_invoker_cdecl>@Uus_socket_t@@@<lambda_5>@?1??init@?$WebSocketContext@$0A@$00$$T@uWS@@AEAAPEAU23@XZ@SA?A_PPEAUus_socket_t@@@Z
	??$<lambda_invoker_cdecl>@Uus_socket_t@@@<lambda_6>@?1??init@?$WebSocketContext@$0A@$00$$T@uWS@@AEAAPEAU23@XZ@SA?A_PPEAUus_socket_t@@@Z
	??$?6U?$char_traits@D@std@@@std@@YAAEAV?$basic_ostream@DU?$char_traits@D@std@@@0@AEAV10@PEBD@Z
	??$?HDU?$char_traits@D@std@@V?$allocator@D@1@@std@@YA?AV?$basic_string@DU?$char_traits@D@std@@V?$allocator@D@2@@0@QEBD$$QEAV10@@Z
	??$?RU?$HttpResponse@$0A@@uWS@@UHttpRequest@1@@<lambda_5>@?1???$ws@$$T@?$TemplatedApp@$0A@@uWS@@QEAA$$QEAU12@V?$basic_string@DU?$char_traits@D@std@@V?$allocator@D@2@@std@@$$QEAU?$WebSocketBehavior@$$T@12@@Z@QEAA?A_PPEAU?$HttpResponse@$0A@@2@PEAUHttpRequest@2@@Z
	??$?RUus_socket_t@@@<lambda_1>@?1??init@?$WebSocketContext@$0A@$00$$T@uWS@@AEAAPEAU23@XZ@QEBA?A_PPEAUus_socket_t@@HPEAX@Z
	??$?RV?$unique_ptr@UNode@?$HttpRouter@URouterData@?$HttpContextData@$0A@@uWS@@@uWS@@U?$default_delete@UNode@?$HttpRouter@URouterData@?$HttpContextData@$0A@@uWS@@@uWS@@@std@@@std@@V01@@<lambda_1>@?1??add@?$HttpRouter@URouterData@?$HttpContextData@$0A@@uWS@@@uWS@@QEAAXV?$vector@V?$basic_string@DU?$char_traits@D@std@@V?$allocator@D@2@@std@@V?$allocator@V?$basic_string@DU?$char_traits@D@std@@V?$allocator@D@2@@std@@@2@@std@@V?$basic_string@DU?$char_traits@D@std@@V?$allocator@D@2@@5@$$QEAV?$any_invocable@$$A6A_NPEAU?$HttpRouter@URouterData@?$HttpContextData@$0A@@uWS@@@uWS@@@Z@ofats@@I@Z@QEBA?A_PAEBV?$unique_ptr@UNode@?$HttpRouter@URouterData@?$HttpContextData@$0A@@uWS@@@uWS@@U?$default_delete@UNode@?$HttpRouter@URouterData@?$HttpContextData@$0A@@uWS@@@uWS@@@std@@@5@3@Z
	??$?__MDU?$char_traits@D@std@@V?$allocator@D@1@@std@@YA?AUstrong_ordering@0@AEBV?$basic_string@DU?$char_traits@D@std@@V?$allocator@D@2@@0@0@Z
	??$_Allocate_for_capacity@$0A@@?$basic_string@DU?$char_traits@D@std@@V?$allocator@D@2@@std@@CAPEADAEAV?$allocator@D@1@AEA_K@Z
	??$_Allocate_manually_vector_aligned@U_Default_allocate_traits@std@@@std@@YAPEAX_K@Z
	??$_Assign_counted_range@PEBV?$basic_string@DU?$char_traits@D@std@@V?$allocator@D@2@@std@@@?$vector@V?$basic_string@DU?$char_traits@D@std@@V?$allocator@D@2@@std@@V?$allocator@V?$basic_string@DU?$char_traits@D@std@@V?$allocator@D@2@@std@@@2@@std@@AEAAXPEBV?$basic_string@DU?$char_traits@D@std@@V?$allocator@D@2@@1@_K@Z
	??$_Construct@$00PEAD@?$basic_string@DU?$char_traits@D@std@@V?$allocator@D@2@@std@@AEAAXQEAD_K@Z
	??$_Construct@$00PEBD@?$basic_string@DU?$char_traits@D@std@@V?$allocator@D@2@@std@@AEAAXQEBD_K@Z
	??$_Copy_backward_memmove@PEAIPEAI@std@@YAPEAIPEAI00@Z
	??$_Copy_memmove@PEAIPEAI@std@@YAPEAIPEAI00@Z
	??$_Copy_memmove@PEAPEAXPEAPEAX@std@@YAPEAPEAXPEAPEAX00@Z
	??$_Copy_memmove_tail@PEAI@std@@YAPEAIQEBDQEAI_K2@Z
	??$_Copy_memmove_tail@PEAPEAX@std@@YAPEAPEAXQEBDQEAPEAX_K2@Z
	??$_Destroy_range@V?$allocator@UTopicTreeMessage@uWS@@@std@@@std@@YAXPEAUTopicTreeMessage@uWS@@QEAU12@AEAV?$allocator@UTopicTreeMessage@uWS@@@0@@Z
	??$_Destroy_range@V?$allocator@V?$basic_string@DU?$char_traits@D@std@@V?$allocator@D@2@@std@@@std@@@std@@YAXPEAV?$basic_string@DU?$char_traits@D@std@@V?$allocator@D@2@@0@QEAV10@AEAV?$allocator@V?$basic_string@DU?$char_traits@D@std@@V?$allocator@D@2@@std@@@0@@Z
	??$_Emplace_reallocate@I@?$vector@IV?$allocator@I@std@@@std@@AEAAPEAIQEAI$$QEAI@Z
	??$_Emplace_reallocate@PEAX@?$vector@PEAXV?$allocator@PEAX@std@@@std@@AEAAPEAPEAXQEAPEAX$$QEAPEAX@Z
	??$_Emplace_reallocate@V?$any_invocable@$$A6AXXZ@ofats@@@?$vector@V?$any_invocable@$$A6AXXZ@ofats@@V?$allocator@V?$any_invocable@$$A6AXXZ@ofats@@@std@@@std@@AEAAPEAV?$any_invocable@$$A6AXXZ@ofats@@QEAV23@$$QEAV23@@Z
	??$_Emplace_reallocate@V?$any_invocable@$$A6A_NPEAU?$HttpRouter@URouterData@?$HttpContextData@$0A@@uWS@@@uWS@@@Z@ofats@@@?$vector@V?$any_invocable@$$A6A_NPEAU?$HttpRouter@URouterData@?$HttpContextData@$0A@@uWS@@@uWS@@@Z@ofats@@V?$allocator@V?$any_invocable@$$A6A_NPEAU?$HttpRouter@URouterData@?$HttpContextData@$0A@@uWS@@@uWS@@@Z@ofats@@@std@@@std@@AEAAPEAV?$any_invocable@$$A6A_NPEAU?$HttpRouter@URouterData@?$HttpContextData@$0A@@uWS@@@uWS@@@Z@ofats@@QEAV23@$$QEAV23@@Z
	??$_Emplace_reallocate@V?$unique_ptr@UNode@?$HttpRouter@URouterData@?$HttpContextData@$0A@@uWS@@@uWS@@U?$default_delete@UNode@?$HttpRouter@URouterData@?$HttpContextData@$0A@@uWS@@@uWS@@@std@@@std@@@?$vector@V?$unique_ptr@UNode@?$HttpRouter@URouterData@?$HttpContextData@$0A@@uWS@@@uWS@@U?$default_delete@UNode@?$HttpRouter@URouterData@?$HttpContextData@$0A@@uWS@@@uWS@@@std@@@std@@V?$allocator@V?$unique_ptr@UNode@?$HttpRouter@URouterData@?$HttpContextData@$0A@@uWS@@@uWS@@U?$default_delete@UNode@?$HttpRouter@URouterData@?$HttpContextData@$0A@@uWS@@@uWS@@@std@@@std@@@2@@std@@AEAAPEAV?$unique_ptr@UNode@?$HttpRouter@URouterData@?$HttpContextData@$0A@@uWS@@@uWS@@U?$default_delete@UNode@?$HttpRouter@URouterData@?$HttpContextData@$0A@@uWS@@@uWS@@@std@@@1@QEAV21@$$QEAV21@@Z
	??$_Erase_tree@V?$allocator@U?$_Tree_node@PEAUTopic@uWS@@PEAX@std@@@std@@@?$_Tree_val@U?$_Tree_simple_types@PEAUTopic@uWS@@@std@@@std@@QEAAXAEAV?$allocator@U?$_Tree_node@PEAUTopic@uWS@@PEAX@std@@@1@PEAU?$_Tree_node@PEAUTopic@uWS@@PEAX@1@@Z
	??$_Erase_tree@V?$allocator@U?$_Tree_node@U?$pair@$$CBV?$basic_string@DU?$char_traits@D@std@@V?$allocator@D@2@@std@@G@std@@PEAX@std@@@std@@@?$_Tree_val@U?$_Tree_simple_types@U?$pair@$$CBV?$basic_string@DU?$char_traits@D@std@@V?$allocator@D@2@@std@@G@std@@@std@@@std@@QEAAXAEAV?$allocator@U?$_Tree_node@U?$pair@$$CBV?$basic_string@DU?$char_traits@D@std@@V?$allocator@D@2@@std@@G@std@@PEAX@std@@@1@PEAU?$_Tree_node@U?$pair@$$CBV?$basic_string@DU?$char_traits@D@std@@V?$allocator@D@2@@std@@G@std@@PEAX@1@@Z
	??$_Erase_tree@V?$allocator@U?$_Tree_node@U?$pair@QEAXV?$any_invocable@$$A6AXPEAULoop@uWS@@@Z@ofats@@@std@@PEAX@std@@@std@@@?$_Tree_val@U?$_Tree_simple_types@U?$pair@QEAXV?$any_invocable@$$A6AXPEAULoop@uWS@@@Z@ofats@@@std@@@std@@@std@@QEAAXAEAV?$allocator@U?$_Tree_node@U?$pair@QEAXV?$any_invocable@$$A6AXPEAULoop@uWS@@@Z@ofats@@@std@@PEAX@std@@@1@PEAU?$_Tree_node@U?$pair@QEAXV?$any_invocable@$$A6AXPEAULoop@uWS@@@Z@ofats@@@std@@PEAX@1@@Z
	??$_Fnv1a_append_value@PEAUSubscriber@uWS@@@std@@YA_K_KAEBQEAUSubscriber@uWS@@@Z
	??$_Freenode@V?$allocator@U?$_List_node@U?$pair@$$CBV?$basic_string_view@DU?$char_traits@D@std@@@std@@V?$unique_ptr@UTopic@uWS@@U?$default_delete@UTopic@uWS@@@std@@@2@@std@@PEAX@std@@@std@@@?$_List_node@U?$pair@$$CBV?$basic_string_view@DU?$char_traits@D@std@@@std@@V?$unique_ptr@UTopic@uWS@@U?$default_delete@UTopic@uWS@@@std@@@2@@std@@PEAX@std@@SAXAEAV?$allocator@U?$_List_node@U?$pair@$$CBV?$basic_string_view@DU?$char_traits@D@std@@@std@@V?$unique_ptr@UTopic@uWS@@U?$default_delete@UTopic@uWS@@@std@@@2@@std@@PEAX@std@@@1@PEAU01@@Z
	??$_Hash_array_representation@D@std@@YA_KQEBD_K@Z
	??$_Hash_representation@PEAUSubscriber@uWS@@@std@@YA_KAEBQEAUSubscriber@uWS@@@Z
	??$_Insertion_sort_unchecked@PEAV?$unique_ptr@UNode@?$HttpRouter@URouterData@?$HttpContextData@$0A@@uWS@@@uWS@@U?$default_delete@UNode@?$HttpRouter@URouterData@?$HttpContextData@$0A@@uWS@@@uWS@@@std@@@std@@V<lambda_1>@?1??add@?$HttpRouter@URouterData@?$HttpContextData@$0A@@uWS@@@uWS@@QEAAXV?$vector@V?$basic_string@DU?$char_traits@D@std@@V?$allocator@D@2@@std@@V?$allocator@V?$basic_string@DU?$char_traits@D@std@@V?$allocator@D@2@@std@@@2@@2@V?$basic_string@DU?$char_traits@D@std@@V?$allocator@D@2@@2@$$QEAV?$any_invocable@$$A6A_NPEAU?$HttpRouter@URouterData@?$HttpContextData@$0A@@uWS@@@uWS@@@Z@ofats@@I@Z@@std@@YAPEAV?$unique_ptr@UNode@?$HttpRouter@URouterData@?$HttpContextData@$0A@@uWS@@@uWS@@U?$default_delete@UNode@?$HttpRouter@URouterData@?$HttpContextData@$0A@@uWS@@@uWS@@@std@@@0@QEAV10@0V<lambda_1>@?1??add@?$HttpRouter@URouterData@?$HttpContextData@$0A@@uWS@@@uWS@@QEAAXV?$vector@V?$basic_string@DU?$char_traits@D@std@@V?$allocator@D@2@@std@@V?$allocator@V?$basic_string@DU?$char_traits@D@std@@V?$allocator@D@2@@std@@@2@@0@V?$basic_string@DU?$char_traits@D@std@@V?$allocator@D@2@@0@$$QEAV?$any_invocable@$$A6A_NPEAU?$HttpRouter@URouterData@?$HttpContextData@$0A@@uWS@@@uWS@@@Z@ofats@@I@Z@@Z
	??$_Integral_to_string@DH@std@@YA?AV?$basic_string@DU?$char_traits@D@std@@V?$allocator@D@2@@0@H@Z
	??$_Med3_unchecked@PEAV?$unique_ptr@UNode@?$HttpRouter@URouterData@?$HttpContextData@$0A@@uWS@@@uWS@@U?$default_delete@UNode@?$HttpRouter@URouterData@?$HttpContextData@$0A@@uWS@@@uWS@@@std@@@std@@V<lambda_1>@?1??add@?$HttpRouter@URouterData@?$HttpContextData@$0A@@uWS@@@uWS@@QEAAXV?$vector@V?$basic_string@DU?$char_traits@D@std@@V?$allocator@D@2@@std@@V?$allocator@V?$basic_string@DU?$char_traits@D@std@@V?$allocator@D@2@@std@@@2@@2@V?$basic_string@DU?$char_traits@D@std@@V?$allocator@D@2@@2@$$QEAV?$any_invocable@$$A6A_NPEAU?$HttpRouter@URouterData@?$HttpContextData@$0A@@uWS@@@uWS@@@Z@ofats@@I@Z@@std@@YAXPEAV?$unique_ptr@UNode@?$HttpRouter@URouterData@?$HttpContextData@$0A@@uWS@@@uWS@@U?$default_delete@UNode@?$HttpRouter@URouterData@?$HttpContextData@$0A@@uWS@@@uWS@@@std@@@0@00V<lambda_1>@?1??add@?$HttpRouter@URouterData@?$HttpContextData@$0A@@uWS@@@uWS@@QEAAXV?$vector@V?$basic_string@DU?$char_traits@D@std@@V?$allocator@D@2@@std@@V?$allocator@V?$basic_string@DU?$char_traits@D@std@@V?$allocator@D@2@@std@@@2@@0@V?$basic_string@DU?$char_traits@D@std@@V?$allocator@D@2@@0@$$QEAV?$any_invocable@$$A6A_NPEAU?$HttpRouter@URouterData@?$HttpContextData@$0A@@uWS@@@uWS@@@Z@ofats@@I@Z@@Z
	??$_Move_backward_unchecked@PEAV?$unique_ptr@UNode@?$HttpRouter@URouterData@?$HttpContextData@$0A@@uWS@@@uWS@@U?$default_delete@UNode@?$HttpRouter@URouterData@?$HttpContextData@$0A@@uWS@@@uWS@@@std@@@std@@PEAV12@@std@@YAPEAV?$unique_ptr@UNode@?$HttpRouter@URouterData@?$HttpContextData@$0A@@uWS@@@uWS@@U?$default_delete@UNode@?$HttpRouter@URouterData@?$HttpContextData@$0A@@uWS@@@uWS@@@std@@@0@PEAV10@00@Z
	??$_Partition_by_median_guess_unchecked@PEAV?$unique_ptr@UNode@?$HttpRouter@URouterData@?$HttpContextData@$0A@@uWS@@@uWS@@U?$default_delete@UNode@?$HttpRouter@URouterData@?$HttpContextData@$0A@@uWS@@@uWS@@@std@@@std@@V<lambda_1>@?1??add@?$HttpRouter@URouterData@?$HttpContextData@$0A@@uWS@@@uWS@@QEAAXV?$vector@V?$basic_string@DU?$char_traits@D@std@@V?$allocator@D@2@@std@@V?$allocator@V?$basic_string@DU?$char_traits@D@std@@V?$allocator@D@2@@std@@@2@@2@V?$basic_string@DU?$char_traits@D@std@@V?$allocator@D@2@@2@$$QEAV?$any_invocable@$$A6A_NPEAU?$HttpRouter@URouterData@?$HttpContextData@$0A@@uWS@@@uWS@@@Z@ofats@@I@Z@@std@@YA?AU?$pair@PEAV?$unique_ptr@UNode@?$HttpRouter@URouterData@?$HttpContextData@$0A@@uWS@@@uWS@@U?$default_delete@UNode@?$HttpRouter@URouterData@?$HttpContextData@$0A@@uWS@@@uWS@@@std@@@std@@PEAV12@@0@PEAV?$unique_ptr@UNode@?$HttpRouter@URouterData@?$HttpContextData@$0A@@uWS@@@uWS@@U?$default_delete@UNode@?$HttpRouter@URouterData@?$HttpContextData@$0A@@uWS@@@uWS@@@std@@@0@0V<lambda_1>@?1??add@?$HttpRouter@URouterData@?$HttpContextData@$0A@@uWS@@@uWS@@QEAAXV?$vector@V?$basic_string@DU?$char_traits@D@std@@V?$allocator@D@2@@std@@V?$allocator@V?$basic_string@DU?$char_traits@D@std@@V?$allocator@D@2@@std@@@2@@0@V?$basic_string@DU?$char_traits@D@std@@V?$allocator@D@2@@0@$$QEAV?$any_invocable@$$A6A_NPEAU?$HttpRouter@URouterData@?$HttpContextData@$0A@@uWS@@@uWS@@@Z@ofats@@I@Z@@Z
	??$_Pop_heap_hole_by_index@PEAV?$unique_ptr@UNode@?$HttpRouter@URouterData@?$HttpContextData@$0A@@uWS@@@uWS@@U?$default_delete@UNode@?$HttpRouter@URouterData@?$HttpContextData@$0A@@uWS@@@uWS@@@std@@@std@@V12@V<lambda_1>@?1??add@?$HttpRouter@URouterData@?$HttpContextData@$0A@@uWS@@@uWS@@QEAAXV?$vector@V?$basic_string@DU?$char_traits@D@std@@V?$allocator@D@2@@std@@V?$allocator@V?$basic_string@DU?$char_traits@D@std@@V?$allocator@D@2@@std@@@2@@2@V?$basic_string@DU?$char_traits@D@std@@V?$allocator@D@2@@2@$$QEAV?$any_invocable@$$A6A_NPEAU?$HttpRouter@URouterData@?$HttpContextData@$0A@@uWS@@@uWS@@@Z@ofats@@I@Z@@std@@YAXPEAV?$unique_ptr@UNode@?$HttpRouter@URouterData@?$HttpContextData@$0A@@uWS@@@uWS@@U?$default_delete@UNode@?$HttpRouter@URouterData@?$HttpContextData@$0A@@uWS@@@uWS@@@std@@@0@_J1$$QEAV10@V<lambda_1>@?1??add@?$HttpRouter@URouterData@?$HttpContextData@$0A@@uWS@@@uWS@@QEAAXV?$vector@V?$basic_string@DU?$char_traits@D@std@@V?$allocator@D@2@@std@@V?$allocator@V?$basic_string@DU?$char_traits@D@std@@V?$allocator@D@2@@std@@@2@@0@V?$basic_string@DU?$char_traits@D@std@@V?$allocator@D@2@@0@$$QEAV?$any_invocable@$$A6A_NPEAU?$HttpRouter@URouterData@?$HttpContextData@$0A@@uWS@@@uWS@@@Z@ofats@@I@Z@@Z
	??$_Push_heap_by_index@PEAV?$unique_ptr@UNode@?$HttpRouter@URouterData@?$HttpContextData@$0A@@uWS@@@uWS@@U?$default_delete@UNode@?$HttpRouter@URouterData@?$HttpContextData@$0A@@uWS@@@uWS@@@std@@@std@@V12@V<lambda_1>@?1??add@?$HttpRouter@URouterData@?$HttpContextData@$0A@@uWS@@@uWS@@QEAAXV?$vector@V?$basic_string@DU?$char_traits@D@std@@V?$allocator@D@2@@std@@V?$allocator@V?$basic_string@DU?$char_traits@D@std@@V?$allocator@D@2@@std@@@2@@2@V?$basic_string@DU?$char_traits@D@std@@V?$allocator@D@2@@2@$$QEAV?$any_invocable@$$A6A_NPEAU?$HttpRouter@URouterData@?$HttpContextData@$0A@@uWS@@@uWS@@@Z@ofats@@I@Z@@std@@YAXPEAV?$unique_ptr@UNode@?$HttpRouter@URouterData@?$HttpContextData@$0A@@uWS@@@uWS@@U?$default_delete@UNode@?$HttpRouter@URouterData@?$HttpContextData@$0A@@uWS@@@uWS@@@std@@@0@_J1$$QEAV10@V<lambda_1>@?1??add@?$HttpRouter@URouterData@?$HttpContextData@$0A@@uWS@@@uWS@@QEAAXV?$vector@V?$basic_string@DU?$char_traits@D@std@@V?$allocator@D@2@@std@@V?$allocator@V?$basic_string@DU?$char_traits@D@std@@V?$allocator@D@2@@std@@@2@@0@V?$basic_string@DU?$char_traits@D@std@@V?$allocator@D@2@@0@$$QEAV?$any_invocable@$$A6A_NPEAU?$HttpRouter@URouterData@?$HttpContextData@$0A@@uWS@@@uWS@@@Z@ofats@@I@Z@@Z
	??$_Reallocate_grow_by@V<lambda_1>@?1??append@?$basic_string@DU?$char_traits@D@std@@V?$allocator@D@2@@std@@QEAAAEAV34@QEBD_K@Z@PEBD_K@?$basic_string@DU?$char_traits@D@std@@V?$allocator@D@2@@std@@AEAAAEAV01@_KV<lambda_1>@?1??append@01@QEAAAEAV01@QEBD0@Z@PEBD_K@Z
	??$_Reallocate_grow_by@V<lambda_1>@?1??append@?$basic_string@DU?$char_traits@D@std@@V?$allocator@D@2@@std@@QEAAAEAV34@_KD@Z@_KD@?$basic_string@DU?$char_traits@D@std@@V?$allocator@D@2@@std@@AEAAAEAV01@_KV<lambda_1>@?1??append@01@QEAAAEAV01@0D@Z@_KD@Z
	??$_Reallocate_grow_by@V<lambda_1>@?1??insert@?$basic_string@DU?$char_traits@D@std@@V?$allocator@D@2@@std@@QEAAAEAV34@_KQEBD0@Z@_KPEBD_K@?$basic_string@DU?$char_traits@D@std@@V?$allocator@D@2@@std@@AEAAAEAV01@_KV<lambda_1>@?1??insert@01@QEAAAEAV01@0QEBD0@Z@_KPEBD3@Z
	??$_Reallocate_grow_by@V<lambda_1>@?1??reserve@?$basic_string@DU?$char_traits@D@std@@V?$allocator@D@2@@std@@QEAAX_K@Z@$$V@?$basic_string@DU?$char_traits@D@std@@V?$allocator@D@2@@std@@AEAAAEAV01@_KV<lambda_1>@?1??reserve@01@QEAAX0@Z@@Z
	??$_Search_vectorized@$$CBD$$CBD@std@@YAPEBDQEBD00_K@Z
	??$_Sort_unchecked@PEAV?$unique_ptr@UNode@?$HttpRouter@URouterData@?$HttpContextData@$0A@@uWS@@@uWS@@U?$default_delete@UNode@?$HttpRouter@URouterData@?$HttpContextData@$0A@@uWS@@@uWS@@@std@@@std@@V<lambda_1>@?1??add@?$HttpRouter@URouterData@?$HttpContextData@$0A@@uWS@@@uWS@@QEAAXV?$vector@V?$basic_string@DU?$char_traits@D@std@@V?$allocator@D@2@@std@@V?$allocator@V?$basic_string@DU?$char_traits@D@std@@V?$allocator@D@2@@std@@@2@@2@V?$basic_string@DU?$char_traits@D@std@@V?$allocator@D@2@@2@$$QEAV?$any_invocable@$$A6A_NPEAU?$HttpRouter@URouterData@?$HttpContextData@$0A@@uWS@@@uWS@@@Z@ofats@@I@Z@@std@@YAXPEAV?$unique_ptr@UNode@?$HttpRouter@URouterData@?$HttpContextData@$0A@@uWS@@@uWS@@U?$default_delete@UNode@?$HttpRouter@URouterData@?$HttpContextData@$0A@@uWS@@@uWS@@@std@@@0@0_JV<lambda_1>@?1??add@?$HttpRouter@URouterData@?$HttpContextData@$0A@@uWS@@@uWS@@QEAAXV?$vector@V?$basic_string@DU?$char_traits@D@std@@V?$allocator@D@2@@std@@V?$allocator@V?$basic_string@DU?$char_traits@D@std@@V?$allocator@D@2@@std@@@2@@0@V?$basic_string@DU?$char_traits@D@std@@V?$allocator@D@2@@0@$$QEAV?$any_invocable@$$A6A_NPEAU?$HttpRouter@URouterData@?$HttpContextData@$0A@@uWS@@@uWS@@@Z@ofats@@I@Z@@Z
	??$_Test_callable@V<lambda_1>@?BB@???$ws@$$T@?$TemplatedApp@$0A@@uWS@@QEAA$$QEAU23@V?$basic_string@DU?$char_traits@D@std@@V?$allocator@D@2@@std@@$$QEAU?$WebSocketBehavior@$$T@23@@Z@@std@@YA_NAEBV<lambda_1>@?BB@???$ws@$$T@?$TemplatedApp@$0A@@uWS@@QEAA$$QEAU23@V?$basic_string@DU?$char_traits@D@std@@V?$allocator@D@2@@0@$$QEAU?$WebSocketBehavior@$$T@23@@Z@@Z
	??$_UIntegral_to_buff@DI@std@@YAPEADPEADI@Z
	??$_Uninitialized_copy_n@PEBV?$basic_string@DU?$char_traits@D@std@@V?$allocator@D@2@@std@@V?$allocator@V?$basic_string@DU?$char_traits@D@std@@V?$allocator@D@2@@std@@@2@@std@@YAPEAV?$basic_string@DU?$char_traits@D@std@@V?$allocator@D@2@@0@PEBV10@_KPEAV10@AEAV?$allocator@V?$basic_string@DU?$char_traits@D@std@@V?$allocator@D@2@@std@@@0@@Z
	??$_Uninitialized_move@PEAV?$any_invocable@$$A6AXXZ@ofats@@V?$allocator@V?$any_invocable@$$A6AXXZ@ofats@@@std@@@std@@YAPEAV?$any_invocable@$$A6AXXZ@ofats@@QEAV12@0PEAV12@AEAV?$allocator@V?$any_invocable@$$A6AXXZ@ofats@@@0@@Z
	??$_Uninitialized_move@PEAV?$any_invocable@$$A6A_NPEAU?$HttpRouter@URouterData@?$HttpContextData@$0A@@uWS@@@uWS@@@Z@ofats@@V?$allocator@V?$any_invocable@$$A6A_NPEAU?$HttpRouter@URouterData@?$HttpContextData@$0A@@uWS@@@uWS@@@Z@ofats@@@std@@@std@@YAPEAV?$any_invocable@$$A6A_NPEAU?$HttpRouter@URouterData@?$HttpContextData@$0A@@uWS@@@uWS@@@Z@ofats@@QEAV12@0PEAV12@AEAV?$allocator@V?$any_invocable@$$A6A_NPEAU?$HttpRouter@URouterData@?$HttpContextData@$0A@@uWS@@@uWS@@@Z@ofats@@@0@@Z
	??$bit_cast@G@protocol@uWS@@YAGPEAD@Z
	??$bit_cast@_K@protocol@uWS@@YA_KPEAD@Z
	??$cond_byte_swap@G@protocol@uWS@@YAGG@Z
	??$cond_byte_swap@_K@protocol@uWS@@YA_K_K@Z
	??$consumeMessage@$05E@?$WebSocketProtocol@$00U?$WebSocketContext@$0A@$00$$T@uWS@@@uWS@@KA_NEAEAPEADAEAIPEAU?$WebSocketState@$00@1@PEAX@Z
	??$consumeMessage@$07G@?$WebSocketProtocol@$00U?$WebSocketContext@$0A@$00$$T@uWS@@@uWS@@KA_NGAEAPEADAEAIPEAU?$WebSocketState@$00@1@PEAX@Z
	??$consumeMessage@$0O@_K@?$WebSocketProtocol@$00U?$WebSocketContext@$0A@$00$$T@uWS@@@uWS@@KA_N_KAEAPEADAEAIPEAU?$WebSocketState@$00@1@PEAX@Z
	??$emplace@AEAPEAXV?$any_invocable@$$A6AXPEAULoop@uWS@@@Z@ofats@@@?$_Tree@V?$_Tmap_traits@PEAXV?$any_invocable@$$A6AXPEAULoop@uWS@@@Z@ofats@@U?$less@PEAX@std@@V?$allocator@U?$pair@QEAXV?$any_invocable@$$A6AXPEAULoop@uWS@@@Z@ofats@@@std@@@4@$0A@@std@@@std@@QEAA?AU?$pair@V?$_Tree_iterator@V?$_Tree_val@U?$_Tree_simple_types@U?$pair@QEAXV?$any_invocable@$$A6AXPEAULoop@uWS@@@Z@ofats@@@std@@@std@@@std@@@std@@_N@1@AEAPEAX$$QEAV?$any_invocable@$$A6AXPEAULoop@uWS@@@Z@ofats@@@Z
	??$endl@DU?$char_traits@D@std@@@std@@YAAEAV?$basic_ostream@DU?$char_traits@D@std@@@0@AEAV10@@Z
	??$fenceAndConsumePostPadded@$00@HttpParser@uWS@@AEAA?AU?$pair@IPEAX@std@@PEADIPEAX1PEAUHttpRequest@1@AEAV?$any_invocable@$$A6APEAXPEAXPEAUHttpRequest@uWS@@@Z@ofats@@AEAV?$any_invocable@$$A6APEAXPEAXV?$basic_string_view@DU?$char_traits@D@std@@@std@@_N@Z@6@@Z
	??$fenceAndConsumePostPadded@$0A@@HttpParser@uWS@@AEAA?AU?$pair@IPEAX@std@@PEADIPEAX1PEAUHttpRequest@1@AEAV?$any_invocable@$$A6APEAXPEAXPEAUHttpRequest@uWS@@@Z@ofats@@AEAV?$any_invocable@$$A6APEAXPEAXV?$basic_string_view@DU?$char_traits@D@std@@@std@@_N@Z@6@@Z
	??$optional_ptr@D@uWS@@YA?AV?$optional@PEAD@std@@PEAD@Z
	??$uninitialized_fill@PEAV?$_List_unchecked_iterator@V?$_List_val@U?$_List_simple_types@U?$pair@$$CBV?$basic_string_view@DU?$char_traits@D@std@@@std@@V?$unique_ptr@UTopic@uWS@@U?$default_delete@UTopic@uWS@@@std@@@2@@std@@@std@@@std@@@std@@V12@@std@@YAXQEAV?$_List_unchecked_iterator@V?$_List_val@U?$_List_simple_types@U?$pair@$$CBV?$basic_string_view@DU?$char_traits@D@std@@@std@@V?$unique_ptr@UTopic@uWS@@U?$default_delete@UTopic@uWS@@@std@@@2@@std@@@std@@@std@@@0@0AEBV10@@Z
	??$upgrade@$$T@?$HttpResponse@$0A@@uWS@@QEAAX$$QEA$$TV?$basic_string_view@DU?$char_traits@D@std@@@std@@11PEAUus_socket_context_t@@@Z
	??$ws@$$T@?$TemplatedApp@$0A@@uWS@@QEAA$$QEAU01@V?$basic_string@DU?$char_traits@D@std@@V?$allocator@D@2@@std@@$$QEAU?$WebSocketBehavior@$$T@01@@Z
	??0?$TemplatedApp@$0A@@uWS@@QEAA@USocketContextOptions@1@@Z
	??0?$TopicTree@UTopicTreeMessage@uWS@@UTopicTreeBigMessage@2@@uWS@@QEAA@V?$function@$$A6A_NPEAUSubscriber@uWS@@AEAUTopicTreeMessage@2@W4IteratorFlags@?$TopicTree@UTopicTreeMessage@uWS@@UTopicTreeBigMessage@2@@2@@Z@std@@@Z
	??0?$WebSocketBehavior@$$T@?$TemplatedApp@$0A@@uWS@@QEAA@$$QEAU012@@Z
	??0?$any_invocable@$$A6A_NPEAU?$HttpRouter@URouterData@?$HttpContextData@$0A@@uWS@@@uWS@@@Z@ofats@@QEAA@$$QEAV01@@Z
	??0?$basic_string@DU?$char_traits@D@std@@V?$allocator@D@2@@std@@QEAA@AEBV01@@Z
	??0?$basic_string_view@DU?$char_traits@D@std@@@std@@QEAA@XZ
	??0?$vector@V?$any_invocable@$$A6AXXZ@ofats@@V?$allocator@V?$any_invocable@$$A6AXXZ@ofats@@@std@@@std@@QEAA@XZ
	??0ExtensionsParser@uWS@@QEAA@PEBD_K@Z
	??0Header@HttpRequest@uWS@@QEAA@XZ
	??0Node@?$HttpRouter@URouterData@?$HttpContextData@$0A@@uWS@@@uWS@@QEAA@V?$basic_string@DU?$char_traits@D@std@@V?$allocator@D@2@@std@@@Z
	??0bad_alloc@std@@QEAA@AEBV01@@Z
	??0bad_array_new_length@std@@QEAA@AEBV01@@Z
	??0bad_array_new_length@std@@QEAA@XZ
	??0bad_optional_access@std@@QEAA@AEBV01@@Z
	??0exception@std@@QEAA@AEBV01@@Z
	??1<lambda_1>@?1??onHttp@?$HttpContext@$0A@@uWS@@QEAAXV?$basic_string@DU?$char_traits@D@std@@V?$allocator@D@2@@std@@0$$QEAV?$any_invocable@$$A6AXPEAU?$HttpResponse@$0A@@uWS@@PEAUHttpRequest@2@@Z@ofats@@_N@Z@QEAA@XZ
	??1<lambda_5>@?1???$ws@$$T@?$TemplatedApp@$0A@@uWS@@QEAA$$QEAU12@V?$basic_string@DU?$char_traits@D@std@@V?$allocator@D@2@@std@@$$QEAU?$WebSocketBehavior@$$T@12@@Z@QEAA@XZ
	??1?$AsyncSocketData@$0A@@uWS@@QEAA@XZ
	??1?$TemplatedApp@$0A@@uWS@@QEAA@XZ
	??1?$WebSocketBehavior@$$T@?$TemplatedApp@$0A@@uWS@@QEAA@XZ
	??1?$WebSocketContextData@$0A@$$T@uWS@@QEAA@XZ
	??1?$_Alloc_construct_ptr@V?$allocator@U?$_Tree_node@U?$pair@$$CBV?$basic_string@DU?$char_traits@D@std@@V?$allocator@D@2@@std@@G@std@@PEAX@std@@@std@@@std@@QEAA@XZ
	??1?$_Alloc_construct_ptr@V?$allocator@U?$_Tree_node@U?$pair@QEAXV?$any_invocable@$$A6AXPEAULoop@uWS@@@Z@ofats@@@std@@PEAX@std@@@std@@@std@@QEAA@XZ
	??1?$_Func_class@_NPEAUSubscriber@uWS@@AEAUTopicTreeMessage@2@W4IteratorFlags@?$TopicTree@UTopicTreeMessage@uWS@@UTopicTreeBigMessage@2@@2@@std@@QEAA@XZ
	??1?$_Hash@V?$_Umap_traits@V?$basic_string_view@DU?$char_traits@D@std@@@std@@V?$unique_ptr@UTopic@uWS@@U?$default_delete@UTopic@uWS@@@std@@@2@V?$_Uhash_compare@V?$basic_string_view@DU?$char_traits@D@std@@@std@@U?$hash@V?$basic_string_view@DU?$char_traits@D@std@@@std@@@2@U?$equal_to@V?$basic_string_view@DU?$char_traits@D@std@@@std@@@2@@2@V?$allocator@U?$pair@$$CBV?$basic_string_view@DU?$char_traits@D@std@@@std@@V?$unique_ptr@UTopic@uWS@@U?$default_delete@UTopic@uWS@@@std@@@2@@std@@@2@$0A@@std@@@std@@QEAA@XZ
	??1?$_Hash@V?$_Uset_traits@PEAUSubscriber@uWS@@V?$_Uhash_compare@PEAUSubscriber@uWS@@U?$hash@PEAUSubscriber@uWS@@@std@@U?$equal_to@PEAUSubscriber@uWS@@@4@@std@@V?$allocator@PEAUSubscriber@uWS@@@4@$0A@@std@@@std@@QEAA@XZ
	??1?$_Hash_vec@V?$allocator@V?$_List_unchecked_iterator@V?$_List_val@U?$_List_simple_types@U?$pair@$$CBV?$basic_string_view@DU?$char_traits@D@std@@@std@@V?$unique_ptr@UTopic@uWS@@U?$default_delete@UTopic@uWS@@@std@@@2@@std@@@std@@@std@@@std@@@std@@@std@@QEAA@XZ
	??1?$_Tidy_guard@V?$vector@V?$basic_string@DU?$char_traits@D@std@@V?$allocator@D@2@@std@@V?$allocator@V?$basic_string@DU?$char_traits@D@std@@V?$allocator@D@2@@std@@@2@@std@@@std@@QEAA@XZ
	??1?$_Uninitialized_backout_al@V?$allocator@V?$basic_string@DU?$char_traits@D@std@@V?$allocator@D@2@@std@@@std@@@std@@QEAA@XZ
	??1?$any_invocable@$$A6APEAXPEAXPEAUHttpRequest@uWS@@@Z@ofats@@QEAA@XZ
	??1?$any_invocable@$$A6APEAXPEAXV?$basic_string_view@DU?$char_traits@D@std@@@std@@_N@Z@ofats@@QEAA@XZ
	??1?$any_invocable@$$A6AXPEAU?$HttpResponse@$0A@@uWS@@PEAUHttpRequest@2@@Z@ofats@@QEAA@XZ
	??1?$any_invocable@$$A6AXPEAULoop@uWS@@@Z@ofats@@QEAA@XZ
	??1?$any_invocable@$$A6AXPEAUus_listen_socket_t@@@Z@ofats@@QEAA@XZ
	??1?$any_invocable@$$A6AXPEBD@Z@ofats@@QEAA@XZ
	??1?$any_invocable@$$A6AXXZ@ofats@@QEAA@XZ
	??1?$any_invocable@$$A6A_NPEAU?$HttpRouter@URouterData@?$HttpContextData@$0A@@uWS@@@uWS@@@Z@ofats@@QEAA@XZ
	??1?$any_invocable@$$A6A_N_K@Z@ofats@@QEAA@XZ
	??1?$any_invocable_impl@X$0A@PEAU?$HttpResponse@$0A@@uWS@@PEAUHttpRequest@2@@any_detail@ofats@@QEAA@XZ
	??1?$any_invocable_impl@X$0A@PEAUus_listen_socket_t@@@any_detail@ofats@@QEAA@XZ
	??1?$any_invocable_impl@_N$0A@PEAU?$HttpRouter@URouterData@?$HttpContextData@$0A@@uWS@@@uWS@@@any_detail@ofats@@QEAA@XZ
	??1?$basic_string@DU?$char_traits@D@std@@V?$allocator@D@2@@std@@QEAA@XZ
	??1?$function@$$A6A_NPEAUSubscriber@uWS@@AEAUTopicTreeMessage@2@W4IteratorFlags@?$TopicTree@UTopicTreeMessage@uWS@@UTopicTreeBigMessage@2@@2@@Z@std@@QEAA@XZ
	??1?$list@U?$pair@$$CBV?$basic_string_view@DU?$char_traits@D@std@@@std@@V?$unique_ptr@UTopic@uWS@@U?$default_delete@UTopic@uWS@@@std@@@2@@std@@V?$allocator@U?$pair@$$CBV?$basic_string_view@DU?$char_traits@D@std@@@std@@V?$unique_ptr@UTopic@uWS@@U?$default_delete@UTopic@uWS@@@std@@@2@@std@@@2@@std@@QEAA@XZ
	??1?$lock_guard@Vmutex@std@@@std@@QEAA@XZ
	??1?$map@PEAXV?$any_invocable@$$A6AXPEAULoop@uWS@@@Z@ofats@@U?$less@PEAX@std@@V?$allocator@U?$pair@QEAXV?$any_invocable@$$A6AXPEAULoop@uWS@@@Z@ofats@@@std@@@4@@std@@QEAA@XZ
	??1?$map@V?$basic_string@DU?$char_traits@D@std@@V?$allocator@D@2@@std@@GU?$less@X@2@V?$allocator@U?$pair@$$CBV?$basic_string@DU?$char_traits@D@std@@V?$allocator@D@2@@std@@G@std@@@2@@std@@QEAA@XZ
	??1?$unique_ptr@UNode@?$HttpRouter@URouterData@?$HttpContextData@$0A@@uWS@@@uWS@@U?$default_delete@UNode@?$HttpRouter@URouterData@?$HttpContextData@$0A@@uWS@@@uWS@@@std@@@std@@QEAA@XZ
	??1?$vector@PEAXV?$allocator@PEAX@std@@@std@@QEAA@XZ
	??1?$vector@UTopicTreeMessage@uWS@@V?$allocator@UTopicTreeMessage@uWS@@@std@@@std@@QEAA@XZ
	??1?$vector@V?$any_invocable@$$A6AXPEAU?$HttpResponse@$0A@@uWS@@H@Z@ofats@@V?$allocator@V?$any_invocable@$$A6AXPEAU?$HttpResponse@$0A@@uWS@@H@Z@ofats@@@std@@@std@@QEAA@XZ
	??1?$vector@V?$any_invocable@$$A6AXXZ@ofats@@V?$allocator@V?$any_invocable@$$A6AXXZ@ofats@@@std@@@std@@QEAA@XZ
	??1?$vector@V?$any_invocable@$$A6A_NPEAU?$HttpRouter@URouterData@?$HttpContextData@$0A@@uWS@@@uWS@@@Z@ofats@@V?$allocator@V?$any_invocable@$$A6A_NPEAU?$HttpRouter@URouterData@?$HttpContextData@$0A@@uWS@@@uWS@@@Z@ofats@@@std@@@std@@QEAA@XZ
	??1?$vector@V?$basic_string@DU?$char_traits@D@std@@V?$allocator@D@2@@std@@V?$allocator@V?$basic_string@DU?$char_traits@D@std@@V?$allocator@D@2@@std@@@2@@std@@QEAA@XZ
	??1?$vector@V?$unique_ptr@UNode@?$HttpRouter@URouterData@?$HttpContextData@$0A@@uWS@@@uWS@@U?$default_delete@UNode@?$HttpRouter@URouterData@?$HttpContextData@$0A@@uWS@@@uWS@@@std@@@std@@V?$allocator@V?$unique_ptr@UNode@?$HttpRouter@URouterData@?$HttpContextData@$0A@@uWS@@@uWS@@U?$default_delete@UNode@?$HttpRouter@URouterData@?$HttpContextData@$0A@@uWS@@@uWS@@@std@@@std@@@2@@std@@QEAA@XZ
	??1BackPressure@uWS@@QEAA@XZ
	??1Node@?$HttpRouter@URouterData@?$HttpContextData@$0A@@uWS@@@uWS@@QEAA@XZ
	??1_Reallocation_guard@?$vector@V?$any_invocable@$$A6AXXZ@ofats@@V?$allocator@V?$any_invocable@$$A6AXXZ@ofats@@@std@@@std@@QEAA@XZ
	??1_Reallocation_guard@?$vector@V?$any_invocable@$$A6A_NPEAU?$HttpRouter@URouterData@?$HttpContextData@$0A@@uWS@@@uWS@@@Z@ofats@@V?$allocator@V?$any_invocable@$$A6A_NPEAU?$HttpRouter@URouterData@?$HttpContextData@$0A@@uWS@@@uWS@@@Z@ofats@@@std@@@std@@QEAA@XZ
	??1_Sentry_base@?$basic_ostream@DU?$char_traits@D@std@@@std@@QEAA@XZ
	??1bad_array_new_length@std@@UEAA@XZ
	??1bad_optional_access@std@@UEAA@XZ
	??1exception@std@@UEAA@XZ
	??1sentry@?$basic_ostream@DU?$char_traits@D@std@@@std@@QEAA@XZ
	??4?$any_invocable@$$A6AXPEAU?$WebSocket@$0A@$00$$T@uWS@@@Z@ofats@@QEAAAEAV01@$$QEAV01@@Z
	??4?$any_invocable@$$A6AXPEAU?$WebSocket@$0A@$00$$T@uWS@@V?$basic_string_view@DU?$char_traits@D@std@@@std@@@Z@ofats@@QEAAAEAV01@$$QEAV01@@Z
	??4?$any_invocable@$$A6AXPEAU?$WebSocket@$0A@$00$$T@uWS@@V?$basic_string_view@DU?$char_traits@D@std@@@std@@W4OpCode@2@@Z@ofats@@QEAAAEAV01@$$QEAV01@@Z
	??R<lambda_1>@?1???R<lambda_3>@?1??init@?$HttpContext@$0A@@uWS@@AEAAPEAU34@XZ@QEBA@PEAUus_socket_t@@PEADH@Z@QEBAPEAXPEAXPEAUHttpRequest@4@@Z
	??R<lambda_3>@?1??init@?$HttpContext@$0A@@uWS@@AEAAPEAU23@XZ@QEBA@PEAUus_socket_t@@PEADH@Z
	??R<lambda_4>@?1??init@?$HttpContext@$0A@@uWS@@AEAAPEAU23@XZ@QEBA@PEAUus_socket_t@@@Z
	??R?$static_for@$03USha1Loop4@WebSocketHandshake@uWS@@@WebSocketHandshake@uWS@@QEAAXPEAI0@Z
	??R?$static_for@$04USha1Loop3@WebSocketHandshake@uWS@@@WebSocketHandshake@uWS@@QEAAXPEAI0@Z
	??R?$static_for@$04USha1Loop5@WebSocketHandshake@uWS@@@WebSocketHandshake@uWS@@QEAAXPEAI0@Z
	??R?$static_for@$05USha1Loop1@WebSocketHandshake@uWS@@@WebSocketHandshake@uWS@@QEAAXPEAI0@Z
	??R?$static_for@$07USha1Loop4@WebSocketHandshake@uWS@@@WebSocketHandshake@uWS@@QEAAXPEAI0@Z
	??R?$static_for@$08USha1Loop3@WebSocketHandshake@uWS@@@WebSocketHandshake@uWS@@QEAAXPEAI0@Z
	??R?$static_for@$08USha1Loop5@WebSocketHandshake@uWS@@@WebSocketHandshake@uWS@@QEAAXPEAI0@Z
	??R?$static_for@$0BA@USha1Loop4@WebSocketHandshake@uWS@@@WebSocketHandshake@uWS@@QEAAXPEAI0@Z
	??R?$static_for@$0BB@USha1Loop3@WebSocketHandshake@uWS@@@WebSocketHandshake@uWS@@QEAAXPEAI0@Z
	??R?$static_for@$0BB@USha1Loop5@WebSocketHandshake@uWS@@@WebSocketHandshake@uWS@@QEAAXPEAI0@Z
	??R?$static_for@$0BE@USha1Loop4@WebSocketHandshake@uWS@@@WebSocketHandshake@uWS@@QEAAXPEAI0@Z
	??R?$static_for@$0M@USha1Loop1@WebSocketHandshake@uWS@@@WebSocketHandshake@uWS@@QEAAXPEAI0@Z
	??R?$static_for@$0M@USha1Loop4@WebSocketHandshake@uWS@@@WebSocketHandshake@uWS@@QEAAXPEAI0@Z
	??R?$static_for@$0N@USha1Loop3@WebSocketHandshake@uWS@@@WebSocketHandshake@uWS@@QEAAXPEAI0@Z
	??R?$static_for@$0N@USha1Loop5@WebSocketHandshake@uWS@@@WebSocketHandshake@uWS@@QEAAXPEAI0@Z
	??_7?$_Func_impl_no_alloc@V<lambda_1>@?BB@???$ws@$$T@?$TemplatedApp@$0A@@uWS@@QEAA$$QEAU23@V?$basic_string@DU?$char_traits@D@std@@V?$allocator@D@2@@std@@$$QEAU?$WebSocketBehavior@$$T@23@@Z@_NPEAUSubscriber@3@AEAUTopicTreeMessage@3@W4IteratorFlags@?$TopicTree@UTopicTreeMessage@uWS@@UTopicTreeBigMessage@2@@3@@std@@6B@
	??_7bad_alloc@std@@6B@
	??_7bad_array_new_length@std@@6B@
	??_7bad_optional_access@std@@6B@
	??_7exception@std@@6B@
	??_H@YAXPEAX_K1P6APEAX0@Z@Z
	??__FlazyLoop@?1??getLazyLoop@Loop@uWS@@CAAEAULoopCleaner@12@XZ@YAXXZ
	?_Buy_raw@?$vector@V?$basic_string@DU?$char_traits@D@std@@V?$allocator@D@2@@std@@V?$allocator@V?$basic_string@DU?$char_traits@D@std@@V?$allocator@D@2@@std@@@2@@std@@AEAAX_K@Z
	?_Copy@?$_Func_impl_no_alloc@V<lambda_1>@?BB@???$ws@$$T@?$TemplatedApp@$0A@@uWS@@QEAA$$QEAU23@V?$basic_string@DU?$char_traits@D@std@@V?$allocator@D@2@@std@@$$QEAU?$WebSocketBehavior@$$T@23@@Z@_NPEAUSubscriber@3@AEAUTopicTreeMessage@3@W4IteratorFlags@?$TopicTree@UTopicTreeMessage@uWS@@UTopicTreeBigMessage@2@@3@@std@@EEBAPEAV?$_Func_base@_NPEAUSubscriber@uWS@@AEAUTopicTreeMessage@2@W4IteratorFlags@?$TopicTree@UTopicTreeMessage@uWS@@UTopicTreeBigMessage@2@@2@@2@PEAX@Z
	?_Deallocate_for_capacity@?$basic_string@DU?$char_traits@D@std@@V?$allocator@D@2@@std@@CAXAEAV?$allocator@D@2@QEAD_K@Z
	?_Delete_this@?$_Func_impl_no_alloc@V<lambda_1>@?BB@???$ws@$$T@?$TemplatedApp@$0A@@uWS@@QEAA$$QEAU23@V?$basic_string@DU?$char_traits@D@std@@V?$allocator@D@2@@std@@$$QEAU?$WebSocketBehavior@$$T@23@@Z@_NPEAUSubscriber@3@AEAUTopicTreeMessage@3@W4IteratorFlags@?$TopicTree@UTopicTreeMessage@uWS@@UTopicTreeBigMessage@2@@3@@std@@EEAAX_N@Z
	?_Do_call@?$_Func_impl_no_alloc@V<lambda_1>@?BB@???$ws@$$T@?$TemplatedApp@$0A@@uWS@@QEAA$$QEAU23@V?$basic_string@DU?$char_traits@D@std@@V?$allocator@D@2@@std@@$$QEAU?$WebSocketBehavior@$$T@23@@Z@_NPEAUSubscriber@3@AEAUTopicTreeMessage@3@W4IteratorFlags@?$TopicTree@UTopicTreeMessage@uWS@@UTopicTreeBigMessage@2@@3@@std@@EEAA_N$$QEAPEAUSubscriber@uWS@@AEAUTopicTreeMessage@4@$$QEAW4IteratorFlags@?$TopicTree@UTopicTreeMessage@uWS@@UTopicTreeBigMessage@2@@4@@Z
	?_Erase_unchecked@?$_Tree@V?$_Tmap_traits@PEAXV?$any_invocable@$$A6AXPEAULoop@uWS@@@Z@ofats@@U?$less@PEAX@std@@V?$allocator@U?$pair@QEAXV?$any_invocable@$$A6AXPEAULoop@uWS@@@Z@ofats@@@std@@@4@$0A@@std@@@std@@AEAAPEAU?$_Tree_node@U?$pair@QEAXV?$any_invocable@$$A6AXPEAULoop@uWS@@@Z@ofats@@@std@@PEAX@2@V?$_Tree_unchecked_const_iterator@V?$_Tree_val@U?$_Tree_simple_types@U?$pair@QEAXV?$any_invocable@$$A6AXPEAULoop@uWS@@@Z@ofats@@@std@@@std@@@std@@U_Iterator_base0@2@@2@0@Z
	?_Extract@?$_Tree_val@U?$_Tree_simple_types@U?$pair@QEAXV?$any_invocable@$$A6AXPEAULoop@uWS@@@Z@ofats@@@std@@@std@@@std@@QEAAPEAU?$_Tree_node@U?$pair@QEAXV?$any_invocable@$$A6AXPEAULoop@uWS@@@Z@ofats@@@std@@PEAX@2@V?$_Tree_unchecked_const_iterator@V?$_Tree_val@U?$_Tree_simple_types@U?$pair@QEAXV?$any_invocable@$$A6AXPEAULoop@uWS@@@Z@ofats@@@std@@@std@@@std@@U_Iterator_base0@2@@2@@Z
	?_Get@?$_Func_impl_no_alloc@V<lambda_1>@?BB@???$ws@$$T@?$TemplatedApp@$0A@@uWS@@QEAA$$QEAU23@V?$basic_string@DU?$char_traits@D@std@@V?$allocator@D@2@@std@@$$QEAU?$WebSocketBehavior@$$T@23@@Z@_NPEAUSubscriber@3@AEAUTopicTreeMessage@3@W4IteratorFlags@?$TopicTree@UTopicTreeMessage@uWS@@UTopicTreeBigMessage@2@@3@@std@@EEBAPEBXXZ
	?_Insert_node@?$_Tree_val@U?$_Tree_simple_types@U?$pair@$$CBV?$basic_string@DU?$char_traits@D@std@@V?$allocator@D@2@@std@@G@std@@@std@@@std@@QEAAPEAU?$_Tree_node@U?$pair@$$CBV?$basic_string@DU?$char_traits@D@std@@V?$allocator@D@2@@std@@G@std@@PEAX@2@U?$_Tree_id@PEAU?$_Tree_node@U?$pair@$$CBV?$basic_string@DU?$char_traits@D@std@@V?$allocator@D@2@@std@@G@std@@PEAX@std@@@2@QEAU32@@Z
	?_Insert_node@?$_Tree_val@U?$_Tree_simple_types@U?$pair@QEAXV?$any_invocable@$$A6AXPEAULoop@uWS@@@Z@ofats@@@std@@@std@@@std@@QEAAPEAU?$_Tree_node@U?$pair@QEAXV?$any_invocable@$$A6AXPEAULoop@uWS@@@Z@ofats@@@std@@PEAX@2@U?$_Tree_id@PEAU?$_Tree_node@U?$pair@QEAXV?$any_invocable@$$A6AXPEAULoop@uWS@@@Z@ofats@@@std@@PEAX@std@@@2@QEAU32@@Z
	?_Lrotate@?$_Tree_val@U?$_Tree_simple_types@U?$pair@QEAXV?$any_invocable@$$A6AXPEAULoop@uWS@@@Z@ofats@@@std@@@std@@@std@@QEAAXPEAU?$_Tree_node@U?$pair@QEAXV?$any_invocable@$$A6AXPEAULoop@uWS@@@Z@ofats@@@std@@PEAX@2@@Z
	?_Move@?$_Func_impl_no_alloc@V<lambda_1>@?BB@???$ws@$$T@?$TemplatedApp@$0A@@uWS@@QEAA$$QEAU23@V?$basic_string@DU?$char_traits@D@std@@V?$allocator@D@2@@std@@$$QEAU?$WebSocketBehavior@$$T@23@@Z@_NPEAUSubscriber@3@AEAUTopicTreeMessage@3@W4IteratorFlags@?$TopicTree@UTopicTreeMessage@uWS@@UTopicTreeBigMessage@2@@3@@std@@EEAAPEAV?$_Func_base@_NPEAUSubscriber@uWS@@AEAUTopicTreeMessage@2@W4IteratorFlags@?$TopicTree@UTopicTreeMessage@uWS@@UTopicTreeBigMessage@2@@2@@2@PEAX@Z
	?_Rrotate@?$_Tree_val@U?$_Tree_simple_types@U?$pair@QEAXV?$any_invocable@$$A6AXPEAULoop@uWS@@@Z@ofats@@@std@@@std@@@std@@QEAAXPEAU?$_Tree_node@U?$pair@QEAXV?$any_invocable@$$A6AXPEAULoop@uWS@@@Z@ofats@@@std@@PEAX@2@@Z
	?_Target_type@?$_Func_impl_no_alloc@V<lambda_1>@?BB@???$ws@$$T@?$TemplatedApp@$0A@@uWS@@QEAA$$QEAU23@V?$basic_string@DU?$char_traits@D@std@@V?$allocator@D@2@@std@@$$QEAU?$WebSocketBehavior@$$T@23@@Z@_NPEAUSubscriber@3@AEAUTopicTreeMessage@3@W4IteratorFlags@?$TopicTree@UTopicTreeMessage@uWS@@UTopicTreeBigMessage@2@@3@@std@@EEBAAEBVtype_info@@XZ
	?_Throw_bad_array_new_length@std@@YAXXZ
	?_Throw_tree_length_error@std@@YAXXZ
	?_Tidy@?$vector@V?$basic_string@DU?$char_traits@D@std@@V?$allocator@D@2@@std@@V?$allocator@V?$basic_string@DU?$char_traits@D@std@@V?$allocator@D@2@@std@@@2@@std@@AEAAXXZ
	?_Xlen_string@std@@YAXXZ
	?_Xlength@?$vector@IV?$allocator@I@std@@@std@@CAXXZ
	?_Xlength@?$vector@PEAXV?$allocator@PEAX@std@@@std@@CAXXZ
	?_Xlength@?$vector@V?$any_invocable@$$A6AXXZ@ofats@@V?$allocator@V?$any_invocable@$$A6AXXZ@ofats@@@std@@@std@@CAXXZ
	?_Xlength@?$vector@V?$any_invocable@$$A6A_NPEAU?$HttpRouter@URouterData@?$HttpContextData@$0A@@uWS@@@uWS@@@Z@ofats@@V?$allocator@V?$any_invocable@$$A6A_NPEAU?$HttpRouter@URouterData@?$HttpContextData@$0A@@uWS@@@uWS@@@Z@ofats@@@std@@@std@@CAXXZ
	?_Xlength@?$vector@V?$basic_string@DU?$char_traits@D@std@@V?$allocator@D@2@@std@@V?$allocator@V?$basic_string@DU?$char_traits@D@std@@V?$allocator@D@2@@std@@@2@@std@@CAXXZ
	?_Xlength@?$vector@V?$unique_ptr@UNode@?$HttpRouter@URouterData@?$HttpContextData@$0A@@uWS@@@uWS@@U?$default_delete@UNode@?$HttpRouter@URouterData@?$HttpContextData@$0A@@uWS@@@uWS@@@std@@@std@@V?$allocator@V?$unique_ptr@UNode@?$HttpRouter@URouterData@?$HttpContextData@$0A@@uWS@@@uWS@@U?$default_delete@UNode@?$HttpRouter@URouterData@?$HttpContextData@$0A@@uWS@@@uWS@@@std@@@std@@@2@@std@@CAXXZ
	?_Xran@?$_String_val@U?$_Simple_types@D@std@@@std@@SAXXZ
	?_Xran@?$basic_string_view@DU?$char_traits@D@std@@@std@@CAXXZ
	?add@?$HttpRouter@URouterData@?$HttpContextData@$0A@@uWS@@@uWS@@QEAAXV?$vector@V?$basic_string@DU?$char_traits@D@std@@V?$allocator@D@2@@std@@V?$allocator@V?$basic_string@DU?$char_traits@D@std@@V?$allocator@D@2@@std@@@2@@std@@V?$basic_string@DU?$char_traits@D@std@@V?$allocator@D@2@@4@$$QEAV?$any_invocable@$$A6A_NPEAU?$HttpRouter@URouterData@?$HttpContextData@$0A@@uWS@@@uWS@@@Z@ofats@@I@Z
	?append@?$basic_string@DU?$char_traits@D@std@@V?$allocator@D@2@@std@@QEAAAEAV12@QEBD_K@Z
	?assign@?$basic_string@DU?$char_traits@D@std@@V?$allocator@D@2@@std@@QEAAAEAV12@QEBD_K@Z
	?call@?$large_handler@V<lambda_1>@?1??onHttp@?$HttpContext@$0A@@uWS@@QEAAXV?$basic_string@DU?$char_traits@D@std@@V?$allocator@D@2@@std@@0$$QEAV?$any_invocable@$$A6AXPEAU?$HttpResponse@$0A@@uWS@@PEAUHttpRequest@2@@Z@ofats@@_N@Z@@?$handler_traits@_NPEAU?$HttpRouter@URouterData@?$HttpContextData@$0A@@uWS@@@uWS@@@any_detail@ofats@@SA_NAEATstorage@34@PEAU?$HttpRouter@URouterData@?$HttpContextData@$0A@@uWS@@@uWS@@@Z
	?call@?$large_handler@V<lambda_5>@?1???$ws@$$T@?$TemplatedApp@$0A@@uWS@@QEAA$$QEAU23@V?$basic_string@DU?$char_traits@D@std@@V?$allocator@D@2@@std@@$$QEAU?$WebSocketBehavior@$$T@23@@Z@@?$handler_traits@XPEAU?$HttpResponse@$0A@@uWS@@PEAUHttpRequest@2@@any_detail@ofats@@SAXAEATstorage@34@PEAU?$HttpResponse@$0A@@uWS@@PEAUHttpRequest@7@@Z
	?call@?$small_handler@V<lambda_1>@?1???0?$TemplatedApp@$0A@@uWS@@QEAA@USocketContextOptions@3@@Z@@?$handler_traits@XPEAU?$HttpResponse@$0A@@uWS@@PEAUHttpRequest@2@@any_detail@ofats@@SAXAEATstorage@34@PEAU?$HttpResponse@$0A@@uWS@@PEAUHttpRequest@7@@Z
	?call@?$small_handler@V<lambda_1>@?1???R<lambda_3>@?1??init@?$HttpContext@$0A@@uWS@@AEAAPEAU45@XZ@QEBA@PEAUus_socket_t@@PEADH@Z@@?$handler_traits@PEAXPEAXPEAUHttpRequest@uWS@@@any_detail@ofats@@SAPEAXAEATstorage@34@PEAXPEAUHttpRequest@uWS@@@Z
	?call@?$small_handler@V<lambda_1>@?1??callOnWritable@?$HttpResponseData@$0A@@uWS@@QEAA_N_K@Z@@?$handler_traits@_N_K@any_detail@ofats@@SA_NAEATstorage@34@_K@Z
	?call@?$small_handler@V<lambda_2>@?1???R<lambda_3>@?1??init@?$HttpContext@$0A@@uWS@@AEAAPEAU45@XZ@QEBA@PEAUus_socket_t@@PEADH@Z@@?$handler_traits@PEAXPEAXV?$basic_string_view@DU?$char_traits@D@std@@@std@@_N@any_detail@ofats@@SAPEAXAEATstorage@34@PEAXV?$basic_string_view@DU?$char_traits@D@std@@@std@@_N@Z
	?call@?$small_handler@V<lambda_2>@?BB@???$ws@$$T@?$TemplatedApp@$0A@@uWS@@QEAA$$QEAU23@V?$basic_string@DU?$char_traits@D@std@@V?$allocator@D@2@@std@@$$QEAU?$WebSocketBehavior@$$T@23@@Z@@?$handler_traits@XPEAULoop@uWS@@@any_detail@ofats@@SAXAEATstorage@34@PEAULoop@uWS@@@Z
	?call@?$small_handler@V<lambda_3>@?BB@???$ws@$$T@?$TemplatedApp@$0A@@uWS@@QEAA$$QEAU23@V?$basic_string@DU?$char_traits@D@std@@V?$allocator@D@2@@std@@$$QEAU?$WebSocketBehavior@$$T@23@@Z@@?$handler_traits@XPEAULoop@uWS@@@any_detail@ofats@@SAXAEATstorage@34@PEAULoop@uWS@@@Z
	?call@?$small_handler@V<lambda_4>@?1???$ws@$$T@?$TemplatedApp@$0A@@uWS@@QEAA$$QEAU23@V?$basic_string@DU?$char_traits@D@std@@V?$allocator@D@2@@std@@$$QEAU?$WebSocketBehavior@$$T@23@@Z@@?$handler_traits@X$$V@any_detail@ofats@@SAXAEATstorage@34@@Z
	?clear@BackPressure@uWS@@QEAAXXZ
	?consume@?$WebSocketProtocol@$00U?$WebSocketContext@$0A@$00$$T@uWS@@@uWS@@SAXPEADIPEAU?$WebSocketState@$00@2@PEAX@Z
	?consumeContinuation@?$WebSocketProtocol@$00U?$WebSocketContext@$0A@$00$$T@uWS@@@uWS@@KA_NAEAPEADAEAIPEAU?$WebSocketState@$00@2@PEAX@Z
	?consumePostPadded@HttpParser@uWS@@QEAA?AU?$pair@IPEAX@std@@PEADIPEAX1$$QEAV?$any_invocable@$$A6APEAXPEAXPEAUHttpRequest@uWS@@@Z@ofats@@$$QEAV?$any_invocable@$$A6APEAXPEAXV?$basic_string_view@DU?$char_traits@D@std@@@std@@_N@Z@6@@Z
	?cork@?$AsyncSocket@$0A@@uWS@@IEAAXXZ
	?create@?$HttpContext@$0A@@uWS@@SAPEAU12@PEAULoop@2@Uus_socket_context_options_t@@@Z
	?create@Loop@uWS@@CAPEAU12@PEAX@Z
	?cullNode@?$HttpRouter@URouterData@?$HttpContextData@$0A@@uWS@@@uWS@@QEAA_NPEAUNode@12@0I@Z
	?deallocate@?$allocator@V?$basic_string@DU?$char_traits@D@std@@V?$allocator@D@2@@std@@@std@@QEAAXQEAV?$basic_string@DU?$char_traits@D@std@@V?$allocator@D@2@@2@_K@Z
	?drain@?$TopicTree@UTopicTreeMessage@uWS@@UTopicTreeBigMessage@2@@uWS@@QEAAXPEAUSubscriber@2@@Z
	?drain@?$TopicTree@UTopicTreeMessage@uWS@@UTopicTreeBigMessage@2@@uWS@@QEAAXXZ
	?drainImpl@?$TopicTree@UTopicTreeMessage@uWS@@UTopicTreeBigMessage@2@@uWS@@AEAAXPEAUSubscriber@2@@Z
	?end@?$WebSocket@$0A@$00$$T@uWS@@QEAAXHV?$basic_string_view@DU?$char_traits@D@std@@@std@@@Z
	?erase@?$_Tree@V?$_Tmap_traits@PEAXV?$any_invocable@$$A6AXPEAULoop@uWS@@@Z@ofats@@U?$less@PEAX@std@@V?$allocator@U?$pair@QEAXV?$any_invocable@$$A6AXPEAULoop@uWS@@@Z@ofats@@@std@@@4@$0A@@std@@@std@@QEAA_KAEBQEAX@Z
	?executeHandlers@?$HttpRouter@URouterData@?$HttpContextData@$0A@@uWS@@@uWS@@AEAA_NPEAUNode@12@HAEAURouterData@?$HttpContextData@$0A@@2@@Z
	?findHandler@?$HttpRouter@URouterData@?$HttpContextData@$0A@@uWS@@@uWS@@AEAAIV?$basic_string@DU?$char_traits@D@std@@V?$allocator@D@2@@std@@0I@Z
	?freeSubscriber@?$TopicTree@UTopicTreeMessage@uWS@@UTopicTreeBigMessage@2@@uWS@@QEAAXPEAUSubscriber@2@@Z
	?generate@WebSocketHandshake@uWS@@SAXQEBDQEAD@Z
	?getHeader@HttpRequest@uWS@@QEAA?AV?$basic_string_view@DU?$char_traits@D@std@@@std@@V34@@Z
	?getHeaders@HttpParser@uWS@@CAIPEAD0PEAUHeader@HttpRequest@2@PEAXAEAI@Z
	?getLazyLoop@Loop@uWS@@CAAEAULoopCleaner@12@XZ
	?getNode@?$HttpRouter@URouterData@?$HttpContextData@$0A@@uWS@@@uWS@@AEAAPEAUNode@12@PEAU312@V?$basic_string@DU?$char_traits@D@std@@V?$allocator@D@2@@std@@_N@Z
	?getSendBuffer@?$AsyncSocket@$0A@@uWS@@IEAA?AU?$pair@PEADW4SendBufferAttribute@uWS@@@std@@_K@Z
	?getUrlSegment@?$HttpRouter@URouterData@?$HttpContextData@$0A@@uWS@@@uWS@@AEAA?AU?$pair@V?$basic_string_view@DU?$char_traits@D@std@@@std@@_N@std@@H@Z
	?handle@?$handler_base@U?$large_handler@V<lambda_1>@?1??onHttp@?$HttpContext@$0A@@uWS@@QEAAXV?$basic_string@DU?$char_traits@D@std@@V?$allocator@D@2@@std@@0$$QEAV?$any_invocable@$$A6AXPEAU?$HttpResponse@$0A@@uWS@@PEAUHttpRequest@2@@Z@ofats@@_N@Z@@?$handler_traits@_NPEAU?$HttpRouter@URouterData@?$HttpContextData@$0A@@uWS@@@uWS@@@any_detail@ofats@@@?$handler_traits@_NPEAU?$HttpRouter@URouterData@?$HttpContextData@$0A@@uWS@@@uWS@@@any_detail@ofats@@SAXW4action@34@PEATstorage@34@1@Z
	?handle@?$handler_base@U?$large_handler@V<lambda_5>@?1???$ws@$$T@?$TemplatedApp@$0A@@uWS@@QEAA$$QEAU23@V?$basic_string@DU?$char_traits@D@std@@V?$allocator@D@2@@std@@$$QEAU?$WebSocketBehavior@$$T@23@@Z@@?$handler_traits@XPEAU?$HttpResponse@$0A@@uWS@@PEAUHttpRequest@2@@any_detail@ofats@@@?$handler_traits@XPEAU?$HttpResponse@$0A@@uWS@@PEAUHttpRequest@2@@any_detail@ofats@@SAXW4action@34@PEATstorage@34@1@Z
	?handle@?$handler_base@U?$small_handler@V<lambda_1>@?1???0?$TemplatedApp@$0A@@uWS@@QEAA@USocketContextOptions@3@@Z@@?$handler_traits@XPEAU?$HttpResponse@$0A@@uWS@@PEAUHttpRequest@2@@any_detail@ofats@@@?$handler_traits@XPEAU?$HttpResponse@$0A@@uWS@@PEAUHttpRequest@2@@any_detail@ofats@@SAXW4action@34@PEATstorage@34@1@Z
	?handle@?$handler_base@U?$small_handler@V<lambda_1>@?1???R<lambda_3>@?1??init@?$HttpContext@$0A@@uWS@@AEAAPEAU45@XZ@QEBA@PEAUus_socket_t@@PEADH@Z@@?$handler_traits@PEAXPEAXPEAUHttpRequest@uWS@@@any_detail@ofats@@@?$handler_traits@PEAXPEAXPEAUHttpRequest@uWS@@@any_detail@ofats@@SAXW4action@34@PEATstorage@34@1@Z
	?handle@?$handler_base@U?$small_handler@V<lambda_1>@?1??callOnWritable@?$HttpResponseData@$0A@@uWS@@QEAA_N_K@Z@@?$handler_traits@_N_K@any_detail@ofats@@@?$handler_traits@_N_K@any_detail@ofats@@SAXW4action@34@PEATstorage@34@1@Z
	?handle@?$handler_base@U?$small_handler@V<lambda_2>@?1???R<lambda_3>@?1??init@?$HttpContext@$0A@@uWS@@AEAAPEAU45@XZ@QEBA@PEAUus_socket_t@@PEADH@Z@@?$handler_traits@PEAXPEAXV?$basic_string_view@DU?$char_traits@D@std@@@std@@_N@any_detail@ofats@@@?$handler_traits@PEAXPEAXV?$basic_string_view@DU?$char_traits@D@std@@@std@@_N@any_detail@ofats@@SAXW4action@34@PEATstorage@34@1@Z
	?handle@?$handler_base@U?$small_handler@V<lambda_2>@?BB@???$ws@$$T@?$TemplatedApp@$0A@@uWS@@QEAA$$QEAU23@V?$basic_string@DU?$char_traits@D@std@@V?$allocator@D@2@@std@@$$QEAU?$WebSocketBehavior@$$T@23@@Z@@?$handler_traits@XPEAULoop@uWS@@@any_detail@ofats@@@?$handler_traits@XPEAULoop@uWS@@@any_detail@ofats@@SAXW4action@34@PEATstorage@34@1@Z
	?handle@?$handler_base@U?$small_handler@V<lambda_3>@?BB@???$ws@$$T@?$TemplatedApp@$0A@@uWS@@QEAA$$QEAU23@V?$basic_string@DU?$char_traits@D@std@@V?$allocator@D@2@@std@@$$QEAU?$WebSocketBehavior@$$T@23@@Z@@?$handler_traits@XPEAULoop@uWS@@@any_detail@ofats@@@?$handler_traits@XPEAULoop@uWS@@@any_detail@ofats@@SAXW4action@34@PEATstorage@34@1@Z
	?handle@?$handler_base@U?$small_handler@V<lambda_4>@?1???$ws@$$T@?$TemplatedApp@$0A@@uWS@@QEAA$$QEAU23@V?$basic_string@DU?$char_traits@D@std@@V?$allocator@D@2@@std@@$$QEAU?$WebSocketBehavior@$$T@23@@Z@@?$handler_traits@X$$V@any_detail@ofats@@@?$handler_traits@X$$V@any_detail@ofats@@SAXW4action@34@PEATstorage@34@1@Z
	?handleFragment@?$WebSocketContext@$0A@$00$$T@uWS@@CA_NPEAD_KIH_NPEAU?$WebSocketState@$00@2@PEAX@Z
	?hasBrokenCompression@uWS@@YA_NV?$basic_string_view@DU?$char_traits@D@std@@@std@@@Z
	?internalEnd@?$HttpResponse@$0A@@uWS@@AEAA_NV?$basic_string_view@DU?$char_traits@D@std@@@std@@_K_N22@Z
	?join@thread@std@@QEAAXXZ
	?markDone@?$HttpResponseData@$0A@@uWS@@QEAAXXZ
	?mightHave@BloomFilter@uWS@@QEAA_NV?$basic_string_view@DU?$char_traits@D@std@@@std@@@Z
	?onHttp@?$HttpContext@$0A@@uWS@@QEAAXV?$basic_string@DU?$char_traits@D@std@@V?$allocator@D@2@@std@@0$$QEAV?$any_invocable@$$A6AXPEAU?$HttpResponse@$0A@@uWS@@PEAUHttpRequest@2@@Z@ofats@@_N@Z
	?postCb@Loop@uWS@@CAXPEAUus_loop_t@@@Z
	?preCb@Loop@uWS@@CAXPEAUus_loop_t@@@Z
	?remove@?$HttpRouter@URouterData@?$HttpContextData@$0A@@uWS@@@uWS@@QEAA_NV?$basic_string@DU?$char_traits@D@std@@V?$allocator@D@2@@std@@0I@Z
	?resize@?$basic_string@DU?$char_traits@D@std@@V?$allocator@D@2@@std@@QEAAX_KD@Z
	?send@?$WebSocket@$0A@$00$$T@uWS@@QEAA?AW4SendStatus@12@V?$basic_string_view@DU?$char_traits@D@std@@@std@@W4OpCode@2@H_N@Z
	?send@?$WebSocket@$0A@$00H@uWS@@QEAA?AW4SendStatus@12@V?$basic_string_view@DU?$char_traits@D@std@@@std@@W4OpCode@2@H_N@Z
	?sha1@WebSocketHandshake@uWS@@SAXQEAI0@Z
	?swap@?$any_invocable_impl@X$0A@$$V@any_detail@ofats@@QEAAXAEAV123@@Z
	?swap@?$any_invocable_impl@X$0A@PEAU?$WebSocket@$0A@$00$$T@uWS@@@any_detail@ofats@@QEAAXAEAV123@@Z
	?swap@?$any_invocable_impl@X$0A@PEAU?$WebSocket@$0A@$00$$T@uWS@@HV?$basic_string_view@DU?$char_traits@D@std@@@std@@@any_detail@ofats@@QEAAXAEAV123@@Z
	?swap@?$any_invocable_impl@X$0A@PEAU?$WebSocket@$0A@$00$$T@uWS@@V?$basic_string_view@DU?$char_traits@D@std@@@std@@@any_detail@ofats@@QEAAXAEAV123@@Z
	?swap@?$any_invocable_impl@X$0A@PEAU?$WebSocket@$0A@$00$$T@uWS@@V?$basic_string_view@DU?$char_traits@D@std@@@std@@HH@any_detail@ofats@@QEAAXAEAV123@@Z
	?swap@?$any_invocable_impl@X$0A@PEAU?$WebSocket@$0A@$00$$T@uWS@@V?$basic_string_view@DU?$char_traits@D@std@@@std@@W4OpCode@2@@any_detail@ofats@@QEAAXAEAV123@@Z
	?swap@?$any_invocable_impl@X$0A@V?$basic_string_view@DU?$char_traits@D@std@@@std@@_N@any_detail@ofats@@QEAAXAEAV123@@Z
	?swap@?$any_invocable_impl@_N$0A@PEAU?$HttpRouter@URouterData@?$HttpContextData@$0A@@uWS@@@uWS@@@any_detail@ofats@@QEAAXAEAV123@@Z
	?swap@?$any_invocable_impl@_N$0A@_K@any_detail@ofats@@QEAAXAEAV123@@Z
	?to_string@std@@YA?AV?$basic_string@DU?$char_traits@D@std@@V?$allocator@D@2@@1@H@Z
	?tryConsumeFieldValue@HttpParser@uWS@@CAPEAXPEAD@Z
	?uncork@?$AsyncSocket@$0A@@uWS@@IEAA?AU?$pair@H_N@std@@PEBDH_N@Z
	?uncorkWithoutSending@?$AsyncSocket@$0A@@uWS@@IEAAXXZ
	?unmaskInplace@?$WebSocketProtocol@$00U?$WebSocketContext@$0A@$00$$T@uWS@@@uWS@@KAXPEAD00@Z
	?updateDate@LoopData@uWS@@QEAAXXZ
	?wakeupCb@Loop@uWS@@CAXPEAUus_loop_t@@@Z
	?what@bad_optional_access@std@@UEBAPEBDXZ
	?what@exception@std@@UEBAPEBDXZ
	?write@?$AsyncSocket@$0A@@uWS@@IEAA?AU?$pair@H_N@std@@PEBDH_NH@Z
	?writeHeader@?$HttpResponse@$0A@@uWS@@QEAAPEAU12@V?$basic_string_view@DU?$char_traits@D@std@@@std@@0@Z
	?writeStatus@?$HttpResponse@$0A@@uWS@@QEAAPEAU12@V?$basic_string_view@DU?$char_traits@D@std@@@std@@@Z
	CloseWebSocket
	InitializeWebSocket
	IsConnected
	SendMsg
	SetMsgCallback
	__local_stdio_printf_options
	snprintf
